#include <math.h>
#include <stdio.h>
#include <stdlib.h>
#include <string.h>
#define LEN 100
#define ASCII 100
#define MAX_N 100
#define MAX_N 100
#define L 100
#define MAX 100
#define ASC 100
#define null 0
#define Len 100
#define M 100
#define SUM 100
#define NUMBER 100
#define SIZE 100
#define N 100
#define Max 100
#define X 100
#define Y 100
#define A 100
#define MAXN 100
#define MAXSIZE 100

int main()
{
    int n,x;
    int a[N];
    int i,j,num;

    scanf("%d",&n);

    for(i=0;i<n;i++)
    {
        scanf("%d",&a[i]);
    }

    scanf("%d",&x);

    for(i=0,num=0;i<n-num;i++)
    {
        if(a[i]==x)
        {
            if(i==n-1-num)
            {
                num++;
            }
            else
            {
              for(j=i;j<n-num-1;j++)
              {
                a[j]=a[j+1];
              }
              i--;
              num++;
            }
        }
    }

    for(i=0;i<n-num;i++)
    {
        if(i==0)
        {
            printf("%d",a[i]);
        }
        else
        {
            printf(" %d",a[i]);
        }
    }

    return 0;
}
